target datalayout = "e-m:e-p270:32:32-p271:32:32-p272:64:64-i64:64-i128:128-f80:128-n8:16:32:64-S128"
target triple = "x86_64-pc-linux-gnu"

%struct._GList = type { ptr, ptr, ptr }
%struct.dt_undo_tags_t = type { i32, ptr, ptr }

; Function Attrs: nounwind uwtable
define internal void @_undo_tags_free(ptr noundef %0) #0 {
  %2 = alloca ptr, align 8
  %3 = alloca ptr, align 8
  store ptr %0, ptr %2, align 8, !tbaa !74
  call void @llvm.lifetime.start.p0(i64 8, ptr %3) #8
  %4 = load ptr, ptr %2, align 8, !tbaa !74
  store ptr %4, ptr %3, align 8, !tbaa !68
  %5 = load ptr, ptr %3, align 8, !tbaa !68
  %6 = getelementptr inbounds nuw %struct.dt_undo_tags_t, ptr %5, i32 0, i32 1
  %7 = load ptr, ptr %6, align 8, !tbaa !72
  call void @g_list_free(ptr noundef %7)
  %8 = load ptr, ptr %3, align 8, !tbaa !68
  %9 = getelementptr inbounds nuw %struct.dt_undo_tags_t, ptr %8, i32 0, i32 2
  %10 = load ptr, ptr %9, align 8, !tbaa !73
  call void @g_list_free(ptr noundef %10)
  %11 = load ptr, ptr %3, align 8, !tbaa !68
  call void @g_free(ptr noundef %11)
  call void @llvm.lifetime.end.p0(i64 8, ptr %3) #8
  ret void
}

; Function Attrs: nounwind uwtable
define internal i32 @_tag_remove_tags_from_list(ptr noundef %0, ptr noundef %1) #0 {
  %3 = alloca ptr, align 8
  %4 = alloca ptr, align 8
  %5 = alloca i32, align 4
  %6 = alloca ptr, align 8
  store ptr %0, ptr %3, align 8, !tbaa !66
  store ptr %1, ptr %4, align 8, !tbaa !59
  call void @llvm.lifetime.start.p0(i64 4, ptr %5) #8
  %7 = load ptr, ptr %3, align 8, !tbaa !66
  %8 = load ptr, ptr %7, align 8, !tbaa !59
  %9 = call i32 @g_list_length(ptr noundef %8)
  store i32 %9, ptr %5, align 4, !tbaa !52
  call void @llvm.lifetime.start.p0(i64 8, ptr %6) #8
  %10 = load ptr, ptr %4, align 8, !tbaa !59
  store ptr %10, ptr %6, align 8, !tbaa !59
  br label %11

11:                                               ; preds = %31, %2
  %12 = load ptr, ptr %6, align 8, !tbaa !59
  %13 = icmp ne ptr %12, null
  br i1 %13, label %15, label %14

14:                                               ; preds = %11
  call void @llvm.lifetime.end.p0(i64 8, ptr %6) #8
  br label %33

15:                                               ; preds = %11
  %16 = load ptr, ptr %3, align 8, !tbaa !66
  %17 = load ptr, ptr %16, align 8, !tbaa !59
  %18 = load ptr, ptr %6, align 8, !tbaa !59
  %19 = getelementptr inbounds nuw %struct._GList, ptr %18, i32 0, i32 0
  %20 = load ptr, ptr %19, align 8, !tbaa !60
  %21 = call ptr @g_list_remove(ptr noundef %17, ptr noundef %20)
  %22 = load ptr, ptr %3, align 8, !tbaa !66
  store ptr %21, ptr %22, align 8, !tbaa !59
  br label %23

23:                                               ; preds = %15
  %24 = load ptr, ptr %6, align 8, !tbaa !59
  %25 = icmp ne ptr %24, null
  br i1 %25, label %26, label %30

26:                                               ; preds = %23
  %27 = load ptr, ptr %6, align 8, !tbaa !59
  %28 = getelementptr inbounds nuw %struct._GList, ptr %27, i32 0, i32 1
  %29 = load ptr, ptr %28, align 8, !tbaa !64
  br label %31

30:                                               ; preds = %23
  br label %31

31:                                               ; preds = %30, %26
  %32 = phi ptr [ %29, %26 ], [ null, %30 ]
  store ptr %32, ptr %6, align 8, !tbaa !59
  br label %11

33:                                               ; preds = %14
  %34 = load ptr, ptr %3, align 8, !tbaa !66
  %35 = load ptr, ptr %34, align 8, !tbaa !59
  %36 = call i32 @g_list_length(ptr noundef %35)
  %37 = load i32, ptr %5, align 4, !tbaa !52
  %38 = icmp ne i32 %36, %37
  %39 = zext i1 %38 to i32
  call void @llvm.lifetime.end.p0(i64 4, ptr %5) #8
  ret i32 %39
}

; Function Attrs: nounwind uwtable
define internal i32 @_tag_add_tags_to_list(ptr noundef %0, ptr noundef %1) #0 {
  %3 = alloca ptr, align 8
  %4 = alloca ptr, align 8
  %5 = alloca i32, align 4
  %6 = alloca ptr, align 8
  store ptr %0, ptr %3, align 8, !tbaa !66
  store ptr %1, ptr %4, align 8, !tbaa !59
  call void @llvm.lifetime.start.p0(i64 4, ptr %5) #8
  store i32 0, ptr %5, align 4, !tbaa !52
  call void @llvm.lifetime.start.p0(i64 8, ptr %6) #8
  %7 = load ptr, ptr %4, align 8, !tbaa !59
  store ptr %7, ptr %6, align 8, !tbaa !59
  br label %8

8:                                                ; preds = %37, %2
  %9 = load ptr, ptr %6, align 8, !tbaa !59
  %10 = icmp ne ptr %9, null
  br i1 %10, label %12, label %11

11:                                               ; preds = %8
  call void @llvm.lifetime.end.p0(i64 8, ptr %6) #8
  br label %39

12:                                               ; preds = %8
  %13 = load ptr, ptr %3, align 8, !tbaa !66
  %14 = load ptr, ptr %13, align 8, !tbaa !59
  %15 = load ptr, ptr %6, align 8, !tbaa !59
  %16 = getelementptr inbounds nuw %struct._GList, ptr %15, i32 0, i32 0
  %17 = load ptr, ptr %16, align 8, !tbaa !60
  %18 = call ptr @g_list_find(ptr noundef %14, ptr noundef %17)
  %19 = icmp ne ptr %18, null
  br i1 %19, label %28, label %20

20:                                               ; preds = %12
  %21 = load ptr, ptr %3, align 8, !tbaa !66
  %22 = load ptr, ptr %21, align 8, !tbaa !59
  %23 = load ptr, ptr %6, align 8, !tbaa !59
  %24 = getelementptr inbounds nuw %struct._GList, ptr %23, i32 0, i32 0
  %25 = load ptr, ptr %24, align 8, !tbaa !60
  %26 = call ptr @g_list_prepend(ptr noundef %22, ptr noundef %25)
  %27 = load ptr, ptr %3, align 8, !tbaa !66
  store ptr %26, ptr %27, align 8, !tbaa !59
  store i32 1, ptr %5, align 4, !tbaa !52
  br label %28

28:                                               ; preds = %20, %12
  br label %29

29:                                               ; preds = %28
  %30 = load ptr, ptr %6, align 8, !tbaa !59
  %31 = icmp ne ptr %30, null
  br i1 %31, label %32, label %36

32:                                               ; preds = %29
  %33 = load ptr, ptr %6, align 8, !tbaa !59
  %34 = getelementptr inbounds nuw %struct._GList, ptr %33, i32 0, i32 1
  %35 = load ptr, ptr %34, align 8, !tbaa !64
  br label %37

36:                                               ; preds = %29
  br label %37

37:                                               ; preds = %36, %32
  %38 = phi ptr [ %35, %32 ], [ null, %36 ]
  store ptr %38, ptr %6, align 8, !tbaa !59
  br label %8

39:                                               ; preds = %11
  %40 = load i32, ptr %5, align 4, !tbaa !52
  call void @llvm.lifetime.end.p0(i64 4, ptr %5) #8
  ret i32 %40
}

; Function Attrs: nounwind uwtable
define internal i32 @_tag_execute(ptr noundef %0, ptr noundef %1, ptr noundef %2, i32 noundef %3, i32 noundef %4) #0 {
  %6 = alloca ptr, align 8
  %7 = alloca ptr, align 8
  %8 = alloca ptr, align 8
  %9 = alloca i32, align 4
  %10 = alloca i32, align 4
  %11 = alloca i32, align 4
  %12 = alloca ptr, align 8
  %13 = alloca i32, align 4
  %14 = alloca ptr, align 8
  %15 = alloca ptr, align 8
  store ptr %0, ptr %6, align 8, !tbaa !59
  store ptr %1, ptr %7, align 8, !tbaa !59
  store ptr %2, ptr %8, align 8, !tbaa !66
  store i32 %3, ptr %9, align 4, !tbaa !52
  store i32 %4, ptr %10, align 4, !tbaa !52
  call void @llvm.lifetime.start.p0(i64 4, ptr %11) #8
  store i32 0, ptr %11, align 4, !tbaa !52
  call void @llvm.lifetime.start.p0(i64 8, ptr %12) #8
  %16 = load ptr, ptr %7, align 8, !tbaa !59
  store ptr %16, ptr %12, align 8, !tbaa !59
  br label %17

17:                                               ; preds = %121, %5
  %18 = load ptr, ptr %12, align 8, !tbaa !59
  %19 = icmp ne ptr %18, null
  br i1 %19, label %21, label %20

20:                                               ; preds = %17
  call void @llvm.lifetime.end.p0(i64 8, ptr %12) #8
  br label %123

21:                                               ; preds = %17
  call void @llvm.lifetime.start.p0(i64 4, ptr %13) #8
  %22 = load ptr, ptr %12, align 8, !tbaa !59
  %23 = getelementptr inbounds nuw %struct._GList, ptr %22, i32 0, i32 0
  %24 = load ptr, ptr %23, align 8, !tbaa !60
  %25 = ptrtoint ptr %24 to i64
  %26 = trunc i64 %25 to i32
  store i32 %26, ptr %13, align 4, !tbaa !52
  call void @llvm.lifetime.start.p0(i64 8, ptr %14) #8
  %27 = call noalias ptr @malloc(i64 noundef 24) #10
  store ptr %27, ptr %14, align 8, !tbaa !68
  %28 = load i32, ptr %13, align 4, !tbaa !52
  %29 = load ptr, ptr %14, align 8, !tbaa !68
  %30 = getelementptr inbounds nuw %struct.dt_undo_tags_t, ptr %29, i32 0, i32 0
  store i32 %28, ptr %30, align 8, !tbaa !70
  %31 = load i32, ptr %13, align 4, !tbaa !52
  %32 = call ptr @_tag_get_tags(i32 noundef %31, i32 noundef 2)
  %33 = load ptr, ptr %14, align 8, !tbaa !68
  %34 = getelementptr inbounds nuw %struct.dt_undo_tags_t, ptr %33, i32 0, i32 1
  store ptr %32, ptr %34, align 8, !tbaa !72
  %35 = load i32, ptr %10, align 4, !tbaa !52
  switch i32 %35, label %87 [
    i32 0, label %36
    i32 1, label %50
    i32 2, label %64
    i32 3, label %82
  ]

36:                                               ; preds = %21
  %37 = load ptr, ptr %14, align 8, !tbaa !68
  %38 = getelementptr inbounds nuw %struct.dt_undo_tags_t, ptr %37, i32 0, i32 1
  %39 = load ptr, ptr %38, align 8, !tbaa !72
  %40 = call ptr @g_list_copy(ptr noundef %39)
  %41 = load ptr, ptr %14, align 8, !tbaa !68
  %42 = getelementptr inbounds nuw %struct.dt_undo_tags_t, ptr %41, i32 0, i32 2
  store ptr %40, ptr %42, align 8, !tbaa !73
  %43 = load ptr, ptr %14, align 8, !tbaa !68
  %44 = getelementptr inbounds nuw %struct.dt_undo_tags_t, ptr %43, i32 0, i32 2
  %45 = load ptr, ptr %6, align 8, !tbaa !59
  %46 = call i32 @_tag_add_tags_to_list(ptr noundef %44, ptr noundef %45)
  %47 = icmp ne i32 %46, 0
  br i1 %47, label %48, label %49

48:                                               ; preds = %36
  store i32 1, ptr %11, align 4, !tbaa !52
  br label %49

49:                                               ; preds = %48, %36
  br label %94

50:                                               ; preds = %21
  %51 = load ptr, ptr %14, align 8, !tbaa !68
  %52 = getelementptr inbounds nuw %struct.dt_undo_tags_t, ptr %51, i32 0, i32 1
  %53 = load ptr, ptr %52, align 8, !tbaa !72
  %54 = call ptr @g_list_copy(ptr noundef %53)
  %55 = load ptr, ptr %14, align 8, !tbaa !68
  %56 = getelementptr inbounds nuw %struct.dt_undo_tags_t, ptr %55, i32 0, i32 2
  store ptr %54, ptr %56, align 8, !tbaa !73
  %57 = load ptr, ptr %14, align 8, !tbaa !68
  %58 = getelementptr inbounds nuw %struct.dt_undo_tags_t, ptr %57, i32 0, i32 2
  %59 = load ptr, ptr %6, align 8, !tbaa !59
  %60 = call i32 @_tag_remove_tags_from_list(ptr noundef %58, ptr noundef %59)
  %61 = icmp ne i32 %60, 0
  br i1 %61, label %62, label %63

62:                                               ; preds = %50
  store i32 1, ptr %11, align 4, !tbaa !52
  br label %63

63:                                               ; preds = %62, %50
  br label %94

64:                                               ; preds = %21
  %65 = load ptr, ptr %6, align 8, !tbaa !59
  %66 = call ptr @g_list_copy(ptr noundef %65)
  %67 = load ptr, ptr %14, align 8, !tbaa !68
  %68 = getelementptr inbounds nuw %struct.dt_undo_tags_t, ptr %67, i32 0, i32 2
  store ptr %66, ptr %68, align 8, !tbaa !73
  %69 = load i32, ptr %13, align 4, !tbaa !52
  %70 = call ptr @_tag_get_tags(i32 noundef %69, i32 noundef 0)
  store ptr %70, ptr %15, align 8, !tbaa !59
  %71 = load ptr, ptr %15, align 8, !tbaa !59
  %72 = icmp ne ptr %71, null
  br i1 %72, label %73, label %81

73:                                               ; preds = %64
  %74 = load ptr, ptr %14, align 8, !tbaa !68
  %75 = getelementptr inbounds nuw %struct.dt_undo_tags_t, ptr %74, i32 0, i32 2
  %76 = load ptr, ptr %75, align 8, !tbaa !73
  %77 = load ptr, ptr %15, align 8, !tbaa !59
  %78 = call ptr @g_list_concat(ptr noundef %76, ptr noundef %77)
  %79 = load ptr, ptr %14, align 8, !tbaa !68
  %80 = getelementptr inbounds nuw %struct.dt_undo_tags_t, ptr %79, i32 0, i32 2
  store ptr %78, ptr %80, align 8, !tbaa !73
  br label %81

81:                                               ; preds = %73, %64
  store i32 1, ptr %11, align 4, !tbaa !52
  br label %94

82:                                               ; preds = %21
  %83 = load ptr, ptr %6, align 8, !tbaa !59
  %84 = call ptr @g_list_copy(ptr noundef %83)
  %85 = load ptr, ptr %14, align 8, !tbaa !68
  %86 = getelementptr inbounds nuw %struct.dt_undo_tags_t, ptr %85, i32 0, i32 2
  store ptr %84, ptr %86, align 8, !tbaa !73
  store i32 1, ptr %11, align 4, !tbaa !52
  br label %94

87:                                               ; preds = %21
  %88 = load ptr, ptr %14, align 8, !tbaa !68
  %89 = getelementptr inbounds nuw %struct.dt_undo_tags_t, ptr %88, i32 0, i32 1
  %90 = load ptr, ptr %89, align 8, !tbaa !72
  %91 = call ptr @g_list_copy(ptr noundef %90)
  %92 = load ptr, ptr %14, align 8, !tbaa !68
  %93 = getelementptr inbounds nuw %struct.dt_undo_tags_t, ptr %92, i32 0, i32 2
  store ptr %91, ptr %93, align 8, !tbaa !73
  store i32 0, ptr %11, align 4, !tbaa !52
  br label %94

94:                                               ; preds = %87, %82, %81, %63, %49
  %95 = load i32, ptr %13, align 4, !tbaa !52
  %96 = load ptr, ptr %14, align 8, !tbaa !68
  %97 = getelementptr inbounds nuw %struct.dt_undo_tags_t, ptr %96, i32 0, i32 1
  %98 = load ptr, ptr %97, align 8, !tbaa !72
  %99 = load ptr, ptr %14, align 8, !tbaa !68
  %100 = getelementptr inbounds nuw %struct.dt_undo_tags_t, ptr %99, i32 0, i32 2
  %101 = load ptr, ptr %100, align 8, !tbaa !73
  call void @_pop_undo_execute(i32 noundef %95, ptr noundef %98, ptr noundef %101)
  %102 = load i32, ptr %9, align 4, !tbaa !52
  %103 = icmp ne i32 %102, 0
  br i1 %103, label %104, label %110

104:                                              ; preds = %94
  %105 = load ptr, ptr %8, align 8, !tbaa !66
  %106 = load ptr, ptr %105, align 8, !tbaa !59
  %107 = load ptr, ptr %14, align 8, !tbaa !68
  %108 = call ptr @g_list_append(ptr noundef %106, ptr noundef %107)
  %109 = load ptr, ptr %8, align 8, !tbaa !66
  store ptr %108, ptr %109, align 8, !tbaa !59
  br label %112

110:                                              ; preds = %94
  %111 = load ptr, ptr %14, align 8, !tbaa !68
  call void @_undo_tags_free(ptr noundef %111)
  br label %112

112:                                              ; preds = %110, %104
  call void @llvm.lifetime.end.p0(i64 8, ptr %14) #8
  call void @llvm.lifetime.end.p0(i64 4, ptr %13) #8
  br label %113

113:                                              ; preds = %112
  %114 = load ptr, ptr %12, align 8, !tbaa !59
  %115 = icmp ne ptr %114, null
  br i1 %115, label %116, label %120

116:                                              ; preds = %113
  %117 = load ptr, ptr %12, align 8, !tbaa !59
  %118 = getelementptr inbounds nuw %struct._GList, ptr %117, i32 0, i32 1
  %119 = load ptr, ptr %118, align 8, !tbaa !64
  br label %121

120:                                              ; preds = %113
  br label %121

121:                                              ; preds = %120, %116
  %122 = phi ptr [ %119, %116 ], [ null, %120 ]
  store ptr %122, ptr %12, align 8, !tbaa !59
  br label %17

123:                                              ; preds = %20
  %124 = load i32, ptr %11, align 4, !tbaa !52
  call void @llvm.lifetime.end.p0(i64 4, ptr %11) #8
  ret i32 %124
}