; Function Attrs: nounwind uwtable
define internal fastcc range(i32 0, 2) i32 @_tag_execute(ptr noundef %0, ptr noundef nonnull readonly captures(none) %1, ptr noundef nonnull captures(none) %2, i32 noundef %3, i32 noundef range(i32 0, 4) %4) unnamed_addr #0 {
  %.not9.i = icmp eq ptr %0, null
  %.not42 = icmp eq i32 %3, 0
  br label %7

6:                                                ; preds = %55
  ret i32 %.1

7:                                                ; preds = %5, %55
  %.052 = phi i32 [ 0, %5 ], [ %.1, %55 ]
  %.03751 = phi ptr [ %1, %5 ], [ %57, %55 ]
  %8 = load ptr, ptr %.03751, align 8, !tbaa !58
  %9 = ptrtoint ptr %8 to i64
  %10 = trunc i64 %9 to i32
  %11 = tail call noalias dereferenceable_or_null(24) ptr @malloc(i64 noundef 24) #14
  store i32 %10, ptr %11, align 8, !tbaa !65
  %12 = tail call fastcc ptr @_tag_get_tags(i32 noundef %10, i32 noundef 2)
  %13 = getelementptr inbounds nuw i8, ptr %11, i64 8
  store ptr %12, ptr %13, align 8, !tbaa !67
  %14 = getelementptr inbounds nuw i8, ptr %11, i64 16
  switch i32 %4, label %default.unreachable53 [
    i32 0, label %15
    i32 1, label %28
    i32 2, label %38
    i32 3, label %44
  ]

15:                                               ; preds = %7
  %16 = tail call ptr @g_list_copy(ptr noundef %12) #11
  store ptr %16, ptr %14, align 8, !tbaa !68
  br i1 %.not9.i, label %_tag_add_tags_to_list.exit.thread, label %.lr.ph.i.outer

.lr.ph.i.outer:                                   ; preds = %15, %.thread
  %.013.i.ph = phi ptr [ %27, %.thread ], [ %0, %15 ]
  %.not41 = phi i1 [ false, %.thread ], [ true, %15 ]
  br label %.lr.ph.i

.lr.ph.i:                                         ; preds = %.lr.ph.i.outer, %20
  %.013.i = phi ptr [ %22, %20 ], [ %.013.i.ph, %.lr.ph.i.outer ]
  %17 = load ptr, ptr %14, align 8, !tbaa !63
  %18 = load ptr, ptr %.013.i, align 8, !tbaa !58
  %19 = tail call ptr @g_list_find(ptr noundef %17, ptr noundef %18) #11
  %.not10.i = icmp eq ptr %19, null
  br i1 %.not10.i, label %.thread, label %20

20:                                               ; preds = %.lr.ph.i
  %21 = getelementptr inbounds nuw i8, ptr %.013.i, i64 8
  %22 = load ptr, ptr %21, align 8, !tbaa !62
  %.not.i = icmp eq ptr %22, null
  br i1 %.not.i, label %_tag_add_tags_to_list.exit, label %.lr.ph.i

.thread:                                          ; preds = %.lr.ph.i
  %23 = load ptr, ptr %14, align 8, !tbaa !63
  %24 = load ptr, ptr %.013.i, align 8, !tbaa !58
  %25 = tail call ptr @g_list_prepend(ptr noundef %23, ptr noundef %24) #11
  store ptr %25, ptr %14, align 8, !tbaa !63
  %26 = getelementptr inbounds nuw i8, ptr %.013.i, i64 8
  %27 = load ptr, ptr %26, align 8, !tbaa !62
  %.not.i55 = icmp eq ptr %27, null
  br i1 %.not.i55, label %_tag_add_tags_to_list.exit.thread57, label %.lr.ph.i.outer

_tag_add_tags_to_list.exit:                       ; preds = %20
  br i1 %.not41, label %_tag_add_tags_to_list.exit.thread, label %_tag_add_tags_to_list.exit.thread57

_tag_add_tags_to_list.exit.thread:                ; preds = %15, %_tag_add_tags_to_list.exit
  br label %_tag_add_tags_to_list.exit.thread57

28:                                               ; preds = %7
  %29 = tail call ptr @g_list_copy(ptr noundef %12) #11
  store ptr %29, ptr %14, align 8, !tbaa !68
  %30 = tail call i32 @g_list_length(ptr noundef %29) #11
  %.pre11.i = load ptr, ptr %14, align 8, !tbaa !63
  br i1 %.not9.i, label %_tag_remove_tags_from_list.exit, label %.lr.ph.i44

.lr.ph.i44:                                       ; preds = %28, %.lr.ph.i44
  %31 = phi ptr [ %33, %.lr.ph.i44 ], [ %.pre11.i, %28 ]
  %.010.i = phi ptr [ %35, %.lr.ph.i44 ], [ %0, %28 ]
  %32 = load ptr, ptr %.010.i, align 8, !tbaa !58
  %33 = tail call ptr @g_list_remove(ptr noundef %31, ptr noundef %32) #11
  store ptr %33, ptr %14, align 8, !tbaa !63
  %34 = getelementptr inbounds nuw i8, ptr %.010.i, i64 8
  %35 = load ptr, ptr %34, align 8, !tbaa !62
  %.not.i45 = icmp eq ptr %35, null
  br i1 %.not.i45, label %_tag_remove_tags_from_list.exit, label %.lr.ph.i44

_tag_remove_tags_from_list.exit:                  ; preds = %.lr.ph.i44, %28
  %36 = phi ptr [ %.pre11.i, %28 ], [ %33, %.lr.ph.i44 ]
  %37 = tail call i32 @g_list_length(ptr noundef %36) #11
  %.not49 = icmp eq i32 %37, %30
  %spec.select43 = select i1 %.not49, i32 %.052, i32 1
  br label %_tag_add_tags_to_list.exit.thread57

38:                                               ; preds = %7
  %39 = tail call ptr @g_list_copy(ptr noundef %0) #11
  store ptr %39, ptr %14, align 8, !tbaa !68
  %40 = tail call fastcc ptr @_tag_get_tags(i32 noundef %10, i32 noundef 0)
  %.not39 = icmp eq ptr %40, null
  br i1 %.not39, label %_tag_add_tags_to_list.exit.thread57, label %41

41:                                               ; preds = %38
  %42 = load ptr, ptr %14, align 8, !tbaa !68
  %43 = tail call ptr @g_list_concat(ptr noundef %42, ptr noundef nonnull %40) #11
  store ptr %43, ptr %14, align 8, !tbaa !68
  br label %_tag_add_tags_to_list.exit.thread57

44:                                               ; preds = %7
  %45 = tail call ptr @g_list_copy(ptr noundef %0) #11
  store ptr %45, ptr %14, align 8, !tbaa !68
  br label %_tag_add_tags_to_list.exit.thread57

default.unreachable53:                            ; preds = %7
  unreachable

_tag_add_tags_to_list.exit.thread57:              ; preds = %.thread, %_tag_add_tags_to_list.exit.thread, %_tag_add_tags_to_list.exit, %_tag_remove_tags_from_list.exit, %38, %41, %44
  %.1 = phi i32 [ 1, %44 ], [ %spec.select43, %_tag_remove_tags_from_list.exit ], [ 1, %41 ], [ 1, %38 ], [ %.052, %_tag_add_tags_to_list.exit.thread ], [ 1, %_tag_add_tags_to_list.exit ], [ 1, %.thread ]
  %46 = load ptr, ptr %13, align 8, !tbaa !67
  %47 = getelementptr inbounds nuw i8, ptr %11, i64 16
  %48 = load ptr, ptr %47, align 8, !tbaa !68
  tail call fastcc void @_pop_undo_execute(i32 noundef %10, ptr noundef %46, ptr noundef %48)
  br i1 %.not42, label %52, label %49

49:                                               ; preds = %_tag_add_tags_to_list.exit.thread57
  %50 = load ptr, ptr %2, align 8, !tbaa !63
  %51 = tail call ptr @g_list_append(ptr noundef %50, ptr noundef nonnull %11) #11
  store ptr %51, ptr %2, align 8, !tbaa !63
  br label %55

52:                                               ; preds = %_tag_add_tags_to_list.exit.thread57
  %53 = load ptr, ptr %13, align 8, !tbaa !67
  tail call void @g_list_free(ptr noundef %53) #11
  %54 = load ptr, ptr %47, align 8, !tbaa !68
  tail call void @g_list_free(ptr noundef %54) #11
  tail call void @g_free(ptr noundef nonnull %11) #11
  br label %55

55:                                               ; preds = %52, %49
  %56 = getelementptr inbounds nuw i8, ptr %.03751, i64 8
  %57 = load ptr, ptr %56, align 8, !tbaa !62
  %.not = icmp eq ptr %57, null
  br i1 %.not, label %6, label %7
}